; Function Attrs: mustprogress uwtable
define void @_ZN6google8protobuf2io18IstreamInputStreamC2EPSii(ptr noundef nonnull align 8 dereferenceable(80) %0, ptr noundef %1, i32 noundef %2) unnamed_addr #3 align 2 personality ptr @__gxx_personality_v0 {
  store ptr getelementptr inbounds inrange(-16, 48) (i8, ptr @_ZTVN6google8protobuf2io18IstreamInputStreamE, i64 16), ptr %0, align 8
  %4 = getelementptr inbounds i8, ptr %0, i64 8
  tail call void @_ZN6google8protobuf2io18IstreamInputStream25CopyingIstreamInputStreamC1EPSi(ptr noundef nonnull align 8 dereferenceable(16) %4, ptr noundef %1)
  %5 = getelementptr inbounds i8, ptr %0, i64 24
  invoke void @_ZN6google8protobuf2io25CopyingInputStreamAdaptorC1EPNS1_18CopyingInputStreamEi(ptr noundef nonnull align 8 dereferenceable(52) %5, ptr noundef nonnull %4, i32 noundef %2)
          to label %6 unwind label %7

6:                                                ; preds = %3
  ret void

7:                                                ; preds = %3
  %8 = landingpad { ptr, i32 }
          cleanup
  tail call void @_ZN6google8protobuf2io18IstreamInputStream25CopyingIstreamInputStreamD1Ev(ptr noundef nonnull align 8 dereferenceable(16) %4) #12
  resume { ptr, i32 } %8
}